target datalayout = "e-m:e-p270:32:32-p271:32:32-p272:64:64-i64:64-i128:128-f80:128-n8:16:32:64-S128"
target triple = "x86_64-pc-linux-gnu"

%struct.repository = type { ptr, ptr, ptr, ptr, ptr, %struct.strmap, %struct.strmap, %struct.repo_path_cache, ptr, ptr, ptr, ptr, %struct.repo_settings, ptr, ptr, ptr, ptr, ptr, ptr, i32, i32, i32, ptr, ptr, i32, i32, i8 }
%struct.strmap = type { %struct.hashmap, ptr, i8 }
%struct.hashmap = type { ptr, ptr, ptr, i32, i32, i32, i32, i8 }
%struct.repo_path_cache = type { ptr, ptr, ptr, ptr, ptr, ptr, ptr }
%struct.repo_settings = type { i32, i32, i32, i32, i32, i32, i32, i32, i32, i32, i32, i32, ptr, i32, i32, i32, i32, i32, i32, i32, i64, i64, i64 }
%struct.fsmonitor_settings = type { i32, i32, ptr }

; Function Attrs: nounwind uwtable
define dso_local i32 @fsm_settings__get_reason(ptr noundef %0) #0 {
  %2 = alloca ptr, align 8
  store ptr %0, ptr %2, align 8, !tbaa !4
  %3 = load ptr, ptr %2, align 8, !tbaa !4
  %4 = getelementptr inbounds nuw %struct.repository, ptr %3, i32 0, i32 12
  %5 = getelementptr inbounds nuw %struct.repo_settings, ptr %4, i32 0, i32 12
  %6 = load ptr, ptr %5, align 8, !tbaa !9
  %7 = icmp ne ptr %6, null
  br i1 %7, label %10, label %8

8:                                                ; preds = %1
  %9 = load ptr, ptr %2, align 8, !tbaa !4
  call void @lookup_fsmonitor_settings(ptr noundef %9)
  br label %10

10:                                               ; preds = %8, %1
  %11 = load ptr, ptr %2, align 8, !tbaa !4
  %12 = getelementptr inbounds nuw %struct.repository, ptr %11, i32 0, i32 12
  %13 = getelementptr inbounds nuw %struct.repo_settings, ptr %12, i32 0, i32 12
  %14 = load ptr, ptr %13, align 8, !tbaa !9
  %15 = getelementptr inbounds nuw %struct.fsmonitor_settings, ptr %14, i32 0, i32 1
  %16 = load i32, ptr %15, align 4, !tbaa !36
  ret i32 %16
}