; Function Attrs: nounwind uwtable
define dso_local i32 @fsm_settings__get_reason(ptr noundef %0) local_unnamed_addr #0 {
  %2 = getelementptr inbounds nuw i8, ptr %0, i64 304
  %3 = load ptr, ptr %2, align 8, !tbaa !4
  %.not = icmp eq ptr %3, null
  br i1 %.not, label %4, label %5

4:                                                ; preds = %1
  tail call fastcc void @lookup_fsmonitor_settings(ptr noundef nonnull %0)
  %.pre = load ptr, ptr %2, align 8, !tbaa !4
  br label %5

5:                                                ; preds = %4, %1
  %6 = phi ptr [ %.pre, %4 ], [ %3, %1 ]
  %7 = getelementptr inbounds nuw i8, ptr %6, i64 4
  %8 = load i32, ptr %7, align 4, !tbaa !33
  ret i32 %8
}